target datalayout = "e-m:e-p270:32:32-p271:32:32-p272:64:64-i64:64-i128:128-f80:128-n8:16:32:64-S128"
target triple = "x86_64-pc-linux-gnu"

%struct._proto_node = type { ptr, ptr, ptr, ptr, ptr, ptr, ptr }
%struct.field_info = type { ptr, i32, i32, i32, i32, i32, i32, ptr, ptr, ptr, i32, i32 }

@ett_rtps_guid_prefix = internal global i32 0, align 4

; Function Attrs: inlinehint nounwind null_pointer_is_valid sspstrong uwtable
define internal void @proto_item_set_hidden(ptr noundef %0) #10 {
  %2 = alloca ptr, align 8
  store ptr %0, ptr %2, align 8
  %3 = load ptr, ptr %2, align 8
  %4 = icmp ne ptr %3, null
  br i1 %4, label %5, label %24

5:                                                ; preds = %1
  br label %6

6:                                                ; preds = %5
  %7 = load ptr, ptr %2, align 8
  %8 = getelementptr inbounds nuw %struct._proto_node, ptr %7, i32 0, i32 5
  %9 = load ptr, ptr %8, align 8
  %10 = icmp ne ptr %9, null
  br i1 %10, label %11, label %22

11:                                               ; preds = %6
  %12 = load ptr, ptr %2, align 8
  %13 = getelementptr inbounds nuw %struct._proto_node, ptr %12, i32 0, i32 5
  %14 = load ptr, ptr %13, align 8
  %15 = getelementptr inbounds nuw %struct.field_info, ptr %14, i32 0, i32 6
  %16 = load i32, ptr %15, align 4
  %17 = or i32 %16, 1
  %18 = load ptr, ptr %2, align 8
  %19 = getelementptr inbounds nuw %struct._proto_node, ptr %18, i32 0, i32 5
  %20 = load ptr, ptr %19, align 8
  %21 = getelementptr inbounds nuw %struct.field_info, ptr %20, i32 0, i32 6
  store i32 %17, ptr %21, align 4
  br label %22

22:                                               ; preds = %11, %6
  br label %23

23:                                               ; preds = %22
  br label %24

24:                                               ; preds = %23, %1
  ret void
}

; Function Attrs: null_pointer_is_valid sspstrong uwtable
define internal void @rtps_util_add_guid_prefix_v2(ptr noundef %0, ptr noundef %1, i32 noundef %2, i32 noundef %3, i32 noundef %4, i32 noundef %5, i32 noundef %6, i32 noundef %7) #0 {
  %9 = alloca ptr, align 8
  %10 = alloca ptr, align 8
  %11 = alloca i32, align 4
  %12 = alloca i32, align 4
  %13 = alloca i32, align 4
  %14 = alloca i32, align 4
  %15 = alloca i32, align 4
  %16 = alloca i32, align 4
  %17 = alloca ptr, align 8
  %18 = alloca ptr, align 8
  store ptr %0, ptr %9, align 8
  store ptr %1, ptr %10, align 8
  store i32 %2, ptr %11, align 4
  store i32 %3, ptr %12, align 4
  store i32 %4, ptr %13, align 4
  store i32 %5, ptr %14, align 4
  store i32 %6, ptr %15, align 4
  store i32 %7, ptr %16, align 4
  %19 = load ptr, ptr %9, align 8
  %20 = icmp ne ptr %19, null
  br i1 %20, label %21, label %57

21:                                               ; preds = %8
  call void @llvm.lifetime.start.p0(i64 8, ptr %17) #14
  call void @llvm.lifetime.start.p0(i64 8, ptr %18) #14
  %22 = load ptr, ptr %9, align 8
  %23 = load i32, ptr %12, align 4
  %24 = load ptr, ptr %10, align 8
  %25 = load i32, ptr %11, align 4
  %26 = call ptr @proto_tree_add_item(ptr noundef %22, i32 noundef %23, ptr noundef %24, i32 noundef %25, i32 noundef 12, i32 noundef 0)
  store ptr %26, ptr %17, align 8
  %27 = load ptr, ptr %17, align 8
  %28 = load i32, ptr @ett_rtps_guid_prefix, align 4
  %29 = call ptr @proto_item_add_subtree(ptr noundef %27, i32 noundef %28)
  store ptr %29, ptr %18, align 8
  %30 = load i32, ptr %16, align 4
  %31 = icmp ne i32 %30, 0
  br i1 %31, label %32, label %39

32:                                               ; preds = %21
  %33 = load ptr, ptr %9, align 8
  %34 = load i32, ptr %16, align 4
  %35 = load ptr, ptr %10, align 8
  %36 = load i32, ptr %11, align 4
  %37 = call ptr @proto_tree_add_item(ptr noundef %33, i32 noundef %34, ptr noundef %35, i32 noundef %36, i32 noundef 12, i32 noundef 0)
  store ptr %37, ptr %17, align 8
  %38 = load ptr, ptr %17, align 8
  call void @proto_item_set_hidden(ptr noundef %38)
  br label %39

39:                                               ; preds = %32, %21
  %40 = load ptr, ptr %18, align 8
  %41 = load i32, ptr %13, align 4
  %42 = load ptr, ptr %10, align 8
  %43 = load i32, ptr %11, align 4
  %44 = call ptr @proto_tree_add_item(ptr noundef %40, i32 noundef %41, ptr noundef %42, i32 noundef %43, i32 noundef 4, i32 noundef 0)
  %45 = load ptr, ptr %18, align 8
  %46 = load i32, ptr %14, align 4
  %47 = load ptr, ptr %10, align 8
  %48 = load i32, ptr %11, align 4
  %49 = add i32 %48, 4
  %50 = call ptr @proto_tree_add_item(ptr noundef %45, i32 noundef %46, ptr noundef %47, i32 noundef %49, i32 noundef 4, i32 noundef 0)
  %51 = load ptr, ptr %18, align 8
  %52 = load i32, ptr %15, align 4
  %53 = load ptr, ptr %10, align 8
  %54 = load i32, ptr %11, align 4
  %55 = add i32 %54, 8
  %56 = call ptr @proto_tree_add_item(ptr noundef %51, i32 noundef %52, ptr noundef %53, i32 noundef %55, i32 noundef 4, i32 noundef 0)
  call void @llvm.lifetime.end.p0(i64 8, ptr %18) #14
  call void @llvm.lifetime.end.p0(i64 8, ptr %17) #14
  br label %57

57:                                               ; preds = %39, %8
  ret void
}