; Function Attrs: null_pointer_is_valid sspstrong uwtable
define internal fastcc void @rtps_util_add_guid_prefix_v2(ptr noundef %0, ptr noundef %1, i32 noundef %2, i32 noundef %3, i32 noundef %4, i32 noundef %5, i32 noundef %6, i32 noundef %7) unnamed_addr #0 {
  %.not = icmp eq ptr %0, null
  br i1 %.not, label %27, label %9

9:                                                ; preds = %8
  %10 = tail call ptr @proto_tree_add_item(ptr noundef nonnull %0, i32 noundef %3, ptr noundef %1, i32 noundef %2, i32 noundef 12, i32 noundef 0)
  %11 = load i32, ptr @ett_rtps_guid_prefix, align 4
  %12 = tail call ptr @proto_item_add_subtree(ptr noundef %10, i32 noundef %11)
  %.not24 = icmp eq i32 %7, 0
  br i1 %.not24, label %proto_item_set_hidden.exit, label %13

13:                                               ; preds = %9
  %14 = tail call ptr @proto_tree_add_item(ptr noundef nonnull %0, i32 noundef %7, ptr noundef %1, i32 noundef %2, i32 noundef 12, i32 noundef 0)
  %.not.i = icmp eq ptr %14, null
  br i1 %.not.i, label %proto_item_set_hidden.exit, label %15

15:                                               ; preds = %13
  %16 = getelementptr inbounds nuw i8, ptr %14, i64 40
  %17 = load ptr, ptr %16, align 8
  %.not5.i = icmp eq ptr %17, null
  br i1 %.not5.i, label %proto_item_set_hidden.exit, label %18

18:                                               ; preds = %15
  %19 = getelementptr inbounds nuw i8, ptr %17, i64 28
  %20 = load i32, ptr %19, align 4
  %21 = or i32 %20, 1
  store i32 %21, ptr %19, align 4
  br label %proto_item_set_hidden.exit

proto_item_set_hidden.exit:                       ; preds = %18, %15, %13, %9
  %22 = tail call ptr @proto_tree_add_item(ptr noundef %12, i32 noundef %4, ptr noundef %1, i32 noundef %2, i32 noundef 4, i32 noundef 0)
  %23 = add i32 %2, 4
  %24 = tail call ptr @proto_tree_add_item(ptr noundef %12, i32 noundef %5, ptr noundef %1, i32 noundef %23, i32 noundef 4, i32 noundef 0)
  %25 = add i32 %2, 8
  %26 = tail call ptr @proto_tree_add_item(ptr noundef %12, i32 noundef %6, ptr noundef %1, i32 noundef %25, i32 noundef 4, i32 noundef 0)
  br label %27

27:                                               ; preds = %proto_item_set_hidden.exit, %8
  ret void
}